; Function Attrs: mustprogress nounwind uwtable
define internal void @_ZN4node12_GLOBAL__N_117CompressionStreamINS0_20BrotliDecoderContextEED2Ev(ptr noundef nonnull align 8 dereferenceable(368) %this) unnamed_addr #3 align 2 {
entry:
  store ptr getelementptr inbounds ({ [22 x ptr], [6 x ptr] }, ptr @_ZTVN4node12_GLOBAL__N_117CompressionStreamINS0_20BrotliDecoderContextEEE, i64 0, i32 0, i64 2), ptr %this, align 8
  %add.ptr = getelementptr inbounds i8, ptr %this, i64 56
  store ptr getelementptr inbounds ({ [22 x ptr], [6 x ptr] }, ptr @_ZTVN4node12_GLOBAL__N_117CompressionStreamINS0_20BrotliDecoderContextEEE, i64 0, i32 1, i64 2), ptr %add.ptr, align 8
  %write_in_progress_ = getelementptr inbounds i8, ptr %this, i64 209
  %0 = load i8, ptr %write_in_progress_, align 1
  %1 = and i8 %0, 1
  %tobool.not = icmp eq i8 %1, 0
  br i1 %tobool.not, label %do.end7, label %do.body5

do.body5:                                         ; preds = %entry
  tail call void @_ZN4node6AssertERKNS_13AssertionInfoE(ptr noundef nonnull align 8 dereferenceable(24) @_ZZN4node12_GLOBAL__N_117CompressionStreamINS0_20BrotliDecoderContextEED1EvE4args) #22
  tail call void @abort() #23
  unreachable

do.end7:                                          ; preds = %entry
  tail call fastcc void @_ZN4node12_GLOBAL__N_117CompressionStreamINS0_20BrotliDecoderContextEE5CloseEv(ptr noundef nonnull align 8 dereferenceable(368) %this)
  %zlib_memory_ = getelementptr inbounds i8, ptr %this, i64 232
  %2 = load i64, ptr %zlib_memory_, align 8
  %cmp.not = icmp eq i64 %2, 0
  br i1 %cmp.not, label %do.body19, label %do.body13

do.body13:                                        ; preds = %do.end7
  tail call void @_ZN4node6AssertERKNS_13AssertionInfoE(ptr noundef nonnull align 8 dereferenceable(24) @_ZZN4node12_GLOBAL__N_117CompressionStreamINS0_20BrotliDecoderContextEED1EvE4args_0) #22
  tail call void @abort() #23
  unreachable

do.body19:                                        ; preds = %do.end7
  %unreported_allocations_ = getelementptr inbounds i8, ptr %this, i64 224
  %3 = load atomic i64, ptr %unreported_allocations_ seq_cst, align 8
  %cmp20.not = icmp eq i64 %3, 0
  br i1 %cmp20.not, label %do.end30, label %do.body25

do.body25:                                        ; preds = %do.body19
  tail call void @_ZN4node6AssertERKNS_13AssertionInfoE(ptr noundef nonnull align 8 dereferenceable(24) @_ZZN4node12_GLOBAL__N_117CompressionStreamINS0_20BrotliDecoderContextEED1EvE4args_1) #22
  tail call void @abort() #23
  unreachable

do.end30:                                         ; preds = %do.body19
  %state_.i = getelementptr inbounds i8, ptr %this, i64 360
  %4 = load ptr, ptr %state_.i, align 8
  %cmp.not.i.i = icmp eq ptr %4, null
  br i1 %cmp.not.i.i, label %_ZN4node12_GLOBAL__N_120BrotliDecoderContextD2Ev.exit, label %if.then.i.i

if.then.i.i:                                      ; preds = %do.end30
  tail call void @BrotliDecoderDestroyInstance(ptr noundef nonnull %4) #22
  br label %_ZN4node12_GLOBAL__N_120BrotliDecoderContextD2Ev.exit

_ZN4node12_GLOBAL__N_120BrotliDecoderContextD2Ev.exit: ; preds = %do.end30, %if.then.i.i
  store ptr null, ptr %state_.i, align 8
  %error_string_.i = getelementptr inbounds i8, ptr %this, i64 328
  tail call void @_ZNSt7__cxx1112basic_stringIcSt11char_traitsIcESaIcEED1Ev(ptr noundef nonnull align 8 dereferenceable(32) %error_string_.i) #22
  tail call void @_ZN4node9AsyncWrapD2Ev(ptr noundef nonnull align 8 dereferenceable(56) %this) #22
  ret void
}